target datalayout = "e-m:e-p270:32:32-p271:32:32-p272:64:64-i64:64-i128:128-f80:128-n8:16:32:64-S128"
target triple = "x86_64-pc-linux-gnu"

; Function Attrs: mustprogress uwtable
define noundef i32 @_ZNK6icu_7716SimpleDateFormat11countDigitsERKNS_13UnicodeStringEii(ptr noundef nonnull align 8 dereferenceable(528) %0, ptr noundef nonnull align 8 dereferenceable(64) %1, i32 noundef %2, i32 noundef %3) #1 align 2 {
  %5 = alloca ptr, align 8
  %6 = alloca ptr, align 8
  %7 = alloca i32, align 4
  %8 = alloca i32, align 4
  %9 = alloca i32, align 4
  %10 = alloca i32, align 4
  %11 = alloca i32, align 4
  store ptr %0, ptr %5, align 8, !tbaa !23
  store ptr %1, ptr %6, align 8, !tbaa !72
  store i32 %2, ptr %7, align 4, !tbaa !14
  store i32 %3, ptr %8, align 4, !tbaa !14
  call void @llvm.lifetime.start.p0(i64 4, ptr %9) #12
  store i32 0, ptr %9, align 4, !tbaa !14
  call void @llvm.lifetime.start.p0(i64 4, ptr %10) #12
  %12 = load i32, ptr %7, align 4, !tbaa !14
  store i32 %12, ptr %10, align 4, !tbaa !14
  br label %13

13:                                               ; preds = %27, %4
  %14 = load i32, ptr %10, align 4, !tbaa !14
  %15 = load i32, ptr %8, align 4, !tbaa !14
  %16 = icmp slt i32 %14, %15
  br i1 %16, label %17, label %33

17:                                               ; preds = %13
  call void @llvm.lifetime.start.p0(i64 4, ptr %11) #12
  %18 = load ptr, ptr %6, align 8, !tbaa !72
  %19 = load i32, ptr %10, align 4, !tbaa !14
  %20 = call noundef i32 @_ZNK6icu_7713UnicodeString8char32AtEi(ptr noundef nonnull align 8 dereferenceable(64) %18, i32 noundef %19)
  store i32 %20, ptr %11, align 4, !tbaa !14
  %21 = load i32, ptr %11, align 4, !tbaa !14
  %22 = call signext i8 @u_isdigit_77(i32 noundef %21)
  %23 = icmp ne i8 %22, 0
  br i1 %23, label %24, label %27

24:                                               ; preds = %17
  %25 = load i32, ptr %9, align 4, !tbaa !14
  %26 = add nsw i32 %25, 1
  store i32 %26, ptr %9, align 4, !tbaa !14
  br label %27

27:                                               ; preds = %24, %17
  %28 = load i32, ptr %11, align 4, !tbaa !14
  %29 = icmp ule i32 %28, 65535
  %30 = select i1 %29, i32 1, i32 2
  %31 = load i32, ptr %10, align 4, !tbaa !14
  %32 = add nsw i32 %31, %30
  store i32 %32, ptr %10, align 4, !tbaa !14
  call void @llvm.lifetime.end.p0(i64 4, ptr %11) #12
  br label %13, !llvm.loop !322

33:                                               ; preds = %13
  %34 = load i32, ptr %9, align 4, !tbaa !14
  call void @llvm.lifetime.end.p0(i64 4, ptr %10) #12
  call void @llvm.lifetime.end.p0(i64 4, ptr %9) #12
  ret i32 %34
}