; Function Attrs: mustprogress uwtable
define noundef i32 @_ZNK6icu_7716SimpleDateFormat11countDigitsERKNS_13UnicodeStringEii(ptr nonnull readnone align 8 captures(none) %0, ptr noundef nonnull align 8 dereferenceable(64) %1, i32 noundef %2, i32 noundef %3) local_unnamed_addr #1 align 2 {
  %5 = icmp slt i32 %2, %3
  br i1 %5, label %.lr.ph, label %._crit_edge

.lr.ph:                                           ; preds = %4, %.lr.ph
  %.011 = phi i32 [ %spec.select, %.lr.ph ], [ 0, %4 ]
  %.0910 = phi i32 [ %11, %.lr.ph ], [ %2, %4 ]
  %6 = tail call noundef i32 @_ZNK6icu_7713UnicodeString8char32AtEi(ptr noundef nonnull align 8 dereferenceable(64) %1, i32 noundef %.0910)
  %7 = tail call signext i8 @u_isdigit_77(i32 noundef %6)
  %.not = icmp ne i8 %7, 0
  %8 = zext i1 %.not to i32
  %spec.select = add nuw nsw i32 %.011, %8
  %9 = icmp ult i32 %6, 65536
  %10 = select i1 %9, i32 1, i32 2
  %11 = add nsw i32 %10, %.0910
  %12 = icmp slt i32 %11, %3
  br i1 %12, label %.lr.ph, label %._crit_edge, !llvm.loop !214

._crit_edge:                                      ; preds = %.lr.ph, %4
  %.0.lcssa = phi i32 [ 0, %4 ], [ %spec.select, %.lr.ph ]
  ret i32 %.0.lcssa
}